target datalayout = "e-m:e-p270:32:32-p271:32:32-p272:64:64-i64:64-i128:128-f80:128-n8:16:32:64-S128"
target triple = "x86_64-pc-linux-gnu"

%"class.clang::DiagnosticMapping" = type { i8, [3 x i8] }
%"struct.(anonymous namespace)::StaticDiagInfoRec" = type <{ i16, i32, i8, i8, i16 }>

; Function Attrs: mustprogress nounwind uwtable
define linkonce_odr hidden void @_ZN5clang17DiagnosticMapping19setNoWarningAsErrorEb(ptr noundef nonnull align 4 dereferenceable(1) %0, i1 noundef zeroext %1) #0 comdat align 2 {
  %3 = alloca ptr, align 8
  %4 = alloca i8, align 1
  store ptr %0, ptr %3, align 8
  %5 = zext i1 %1 to i8
  store i8 %5, ptr %4, align 1
  %6 = load ptr, ptr %3, align 8
  %7 = load i8, ptr %4, align 1
  %8 = trunc i8 %7 to i1
  %9 = zext i1 %8 to i32
  %10 = trunc i32 %9 to i8
  %11 = load i8, ptr %6, align 4
  %12 = and i8 %10, 1
  %13 = shl i8 %12, 5
  %14 = and i8 %11, -33
  %15 = or i8 %14, %13
  store i8 %15, ptr %6, align 4
  ret void
}

; Function Attrs: mustprogress nounwind uwtable
define linkonce_odr hidden void @_ZN5clang17DiagnosticMapping11setSeverityENS_4diag8SeverityE(ptr noundef nonnull align 4 dereferenceable(1) %0, i32 noundef %1) #0 comdat align 2 {
  %3 = alloca ptr, align 8
  %4 = alloca i32, align 4
  store ptr %0, ptr %3, align 8
  store i32 %1, ptr %4, align 4
  %5 = load ptr, ptr %3, align 8
  %6 = load i32, ptr %4, align 4
  %7 = trunc i32 %6 to i8
  %8 = load i8, ptr %5, align 4
  %9 = and i8 %7, 7
  %10 = and i8 %8, -8
  %11 = or i8 %10, %9
  store i8 %11, ptr %5, align 4
  ret void
}

; Function Attrs: mustprogress nounwind uwtable
define linkonce_odr hidden i32 @_ZN5clang17DiagnosticMapping4MakeENS_4diag8SeverityEbb(i32 noundef %0, i1 noundef zeroext %1, i1 noundef zeroext %2) #0 comdat align 2 {
  %4 = alloca %"class.clang::DiagnosticMapping", align 4
  %5 = alloca i32, align 4
  %6 = alloca i8, align 1
  %7 = alloca i8, align 1
  store i32 %0, ptr %5, align 4
  %8 = zext i1 %1 to i8
  store i8 %8, ptr %6, align 1
  %9 = zext i1 %2 to i8
  store i8 %9, ptr %7, align 1
  %10 = load i32, ptr %5, align 4
  %11 = trunc i32 %10 to i8
  %12 = load i8, ptr %4, align 4
  %13 = and i8 %11, 7
  %14 = and i8 %12, -8
  %15 = or i8 %14, %13
  store i8 %15, ptr %4, align 4
  %16 = load i8, ptr %6, align 1
  %17 = trunc i8 %16 to i1
  %18 = zext i1 %17 to i32
  %19 = trunc i32 %18 to i8
  %20 = load i8, ptr %4, align 4
  %21 = and i8 %19, 1
  %22 = shl i8 %21, 3
  %23 = and i8 %20, -9
  %24 = or i8 %23, %22
  store i8 %24, ptr %4, align 4
  %25 = load i8, ptr %7, align 1
  %26 = trunc i8 %25 to i1
  %27 = zext i1 %26 to i32
  %28 = trunc i32 %27 to i8
  %29 = load i8, ptr %4, align 4
  %30 = and i8 %28, 1
  %31 = shl i8 %30, 4
  %32 = and i8 %29, -17
  %33 = or i8 %32, %31
  store i8 %33, ptr %4, align 4
  %34 = load i8, ptr %4, align 4
  %35 = and i8 %34, -33
  %36 = or i8 %35, 0
  store i8 %36, ptr %4, align 4
  %37 = load i8, ptr %4, align 4
  %38 = and i8 %37, -65
  %39 = or i8 %38, 0
  store i8 %39, ptr %4, align 4
  %40 = load i8, ptr %4, align 4
  %41 = and i8 %40, 127
  %42 = or i8 %41, 0
  store i8 %42, ptr %4, align 4
  %43 = load i32, ptr %4, align 4
  ret i32 %43
}

; Function Attrs: mustprogress nounwind uwtable
define dso_local i32 @_ZN5clang13DiagnosticIDs17getDefaultMappingEj(i32 noundef %0) #0 align 2 {
  %2 = alloca %"class.clang::DiagnosticMapping", align 4
  %3 = alloca i32, align 4
  %4 = alloca ptr, align 8
  store i32 %0, ptr %3, align 4
  %5 = call i32 @_ZN5clang17DiagnosticMapping4MakeENS_4diag8SeverityEbb(i32 noundef 5, i1 noundef zeroext false, i1 noundef zeroext false)
  %6 = trunc i32 %5 to i8
  store i8 %6, ptr %2, align 4
  %7 = load i32, ptr %3, align 4
  %8 = call noundef ptr @_ZL11GetDiagInfoj(i32 noundef %7)
  store ptr %8, ptr %4, align 8
  %9 = load ptr, ptr %4, align 8
  %10 = icmp ne ptr %9, null
  br i1 %10, label %11, label %27

11:                                               ; preds = %1
  %12 = load ptr, ptr %4, align 8
  %13 = getelementptr inbounds nuw %"struct.(anonymous namespace)::StaticDiagInfoRec", ptr %12, i32 0, i32 1
  %14 = load i32, ptr %13, align 2
  %15 = and i32 %14, 7
  %16 = trunc i32 %15 to i8
  %17 = zext i8 %16 to i32
  call void @_ZN5clang17DiagnosticMapping11setSeverityENS_4diag8SeverityE(ptr noundef nonnull align 4 dereferenceable(1) %2, i32 noundef %17)
  %18 = load ptr, ptr %4, align 8
  %19 = getelementptr inbounds nuw %"struct.(anonymous namespace)::StaticDiagInfoRec", ptr %18, i32 0, i32 1
  %20 = load i32, ptr %19, align 2
  %21 = lshr i32 %20, 14
  %22 = and i32 %21, 1
  %23 = trunc i32 %22 to i8
  %24 = icmp ne i8 %23, 0
  br i1 %24, label %25, label %26

25:                                               ; preds = %11
  call void @_ZN5clang17DiagnosticMapping19setNoWarningAsErrorEb(ptr noundef nonnull align 4 dereferenceable(1) %2, i1 noundef zeroext true)
  br label %26

26:                                               ; preds = %25, %11
  br label %27

27:                                               ; preds = %26, %1
  %28 = load i32, ptr %2, align 4
  ret i32 %28
}