; Function Attrs: mustprogress nofree norecurse nosync nounwind willreturn memory(read, inaccessiblemem: none) uwtable
define dso_local range(i32 0, 64) i32 @_ZN5clang13DiagnosticIDs17getDefaultMappingEj(i32 noundef %0) local_unnamed_addr #0 align 2 {
  %2 = tail call fastcc noundef ptr @_ZL11GetDiagInfoj(i32 noundef %0)
  %.not = icmp eq ptr %2, null
  br i1 %.not, label %9, label %3

3:                                                ; preds = %1
  %4 = getelementptr inbounds nuw i8, ptr %2, i64 2
  %5 = load i32, ptr %4, align 2
  %6 = and i32 %5, 7
  %7 = lshr i32 %5, 9
  %8 = and i32 %7, 32
  %spec.select = or disjoint i32 %8, %6
  br label %9

9:                                                ; preds = %3, %1
  %.sroa.0.0 = phi i32 [ 5, %1 ], [ %spec.select, %3 ]
  ret i32 %.sroa.0.0
}